Archive member included to satisfy reference by file (symbol)

c:/tools_embedded/3rdparty/gcc_13.2.1/bin/../lib/gcc/arm-none-eabi/13.2.1\libc.a(libc_a-errno.o)
                              build/syscalls.o (__errno)
c:/tools_embedded/3rdparty/gcc_13.2.1/bin/../lib/gcc/arm-none-eabi/13.2.1\libc.a(libc_a-impure.o)
                              c:/tools_embedded/3rdparty/gcc_13.2.1/bin/../lib/gcc/arm-none-eabi/13.2.1\libc.a(libc_a-errno.o) (_impure_ptr)
c:/tools_embedded/3rdparty/gcc_13.2.1/bin/../lib/gcc/arm-none-eabi/13.2.1\libc.a(libc_a-findfp.o)
                              c:/tools_embedded/3rdparty/gcc_13.2.1/bin/../lib/gcc/arm-none-eabi/13.2.1\libc.a(libc_a-impure.o) (__sf)
c:/tools_embedded/3rdparty/gcc_13.2.1/bin/../lib/gcc/arm-none-eabi/13.2.1\libc.a(libc_a-fwalk.o)
                              c:/tools_embedded/3rdparty/gcc_13.2.1/bin/../lib/gcc/arm-none-eabi/13.2.1\libc.a(libc_a-findfp.o) (_fwalk_sglue)
c:/tools_embedded/3rdparty/gcc_13.2.1/bin/../lib/gcc/arm-none-eabi/13.2.1\libc.a(libc_a-stdio.o)
                              c:/tools_embedded/3rdparty/gcc_13.2.1/bin/../lib/gcc/arm-none-eabi/13.2.1\libc.a(libc_a-findfp.o) (__sread)
c:/tools_embedded/3rdparty/gcc_13.2.1/bin/../lib/gcc/arm-none-eabi/13.2.1\libc.a(libc_a-memset.o)
                              c:/tools_embedded/3rdparty/gcc_13.2.1/bin/../lib/gcc/arm-none-eabi/13.2.1\libc.a(libc_a-findfp.o) (memset)
c:/tools_embedded/3rdparty/gcc_13.2.1/bin/../lib/gcc/arm-none-eabi/13.2.1\libc.a(libc_a-closer.o)
                              c:/tools_embedded/3rdparty/gcc_13.2.1/bin/../lib/gcc/arm-none-eabi/13.2.1\libc.a(libc_a-stdio.o) (_close_r)
c:/tools_embedded/3rdparty/gcc_13.2.1/bin/../lib/gcc/arm-none-eabi/13.2.1\libc.a(libc_a-reent.o)
                              c:/tools_embedded/3rdparty/gcc_13.2.1/bin/../lib/gcc/arm-none-eabi/13.2.1\libc.a(libc_a-closer.o) (errno)
c:/tools_embedded/3rdparty/gcc_13.2.1/bin/../lib/gcc/arm-none-eabi/13.2.1\libc.a(libc_a-lseekr.o)
                              c:/tools_embedded/3rdparty/gcc_13.2.1/bin/../lib/gcc/arm-none-eabi/13.2.1\libc.a(libc_a-stdio.o) (_lseek_r)
c:/tools_embedded/3rdparty/gcc_13.2.1/bin/../lib/gcc/arm-none-eabi/13.2.1\libc.a(libc_a-readr.o)
                              c:/tools_embedded/3rdparty/gcc_13.2.1/bin/../lib/gcc/arm-none-eabi/13.2.1\libc.a(libc_a-stdio.o) (_read_r)
c:/tools_embedded/3rdparty/gcc_13.2.1/bin/../lib/gcc/arm-none-eabi/13.2.1\libc.a(libc_a-writer.o)
                              c:/tools_embedded/3rdparty/gcc_13.2.1/bin/../lib/gcc/arm-none-eabi/13.2.1\libc.a(libc_a-stdio.o) (_write_r)
c:/tools_embedded/3rdparty/gcc_13.2.1/bin/../lib/gcc/arm-none-eabi/13.2.1\libc.a(libc_a-lock.o)
                              c:/tools_embedded/3rdparty/gcc_13.2.1/bin/../lib/gcc/arm-none-eabi/13.2.1\libc.a(libc_a-findfp.o) (__retarget_lock_init_recursive)
c:/tools_embedded/3rdparty/gcc_13.2.1/bin/../lib/gcc/arm-none-eabi/13.2.1\libc.a(libc_a-freer.o)
                              c:/tools_embedded/3rdparty/gcc_13.2.1/bin/../lib/gcc/arm-none-eabi/13.2.1\libc.a(libc_a-reent.o) (_free_r)
c:/tools_embedded/3rdparty/gcc_13.2.1/bin/../lib/gcc/arm-none-eabi/13.2.1\libc.a(libc_a-mallocr.o)
                              c:/tools_embedded/3rdparty/gcc_13.2.1/bin/../lib/gcc/arm-none-eabi/13.2.1\libc.a(libc_a-findfp.o) (_malloc_r)
c:/tools_embedded/3rdparty/gcc_13.2.1/bin/../lib/gcc/arm-none-eabi/13.2.1\libc.a(libc_a-mlock.o)
                              c:/tools_embedded/3rdparty/gcc_13.2.1/bin/../lib/gcc/arm-none-eabi/13.2.1\libc.a(libc_a-freer.o) (__malloc_lock)
c:/tools_embedded/3rdparty/gcc_13.2.1/bin/../lib/gcc/arm-none-eabi/13.2.1\libc.a(libc_a-fclose.o)
                              c:/tools_embedded/3rdparty/gcc_13.2.1/bin/../lib/gcc/arm-none-eabi/13.2.1\libc.a(libc_a-findfp.o) (_fclose_r)
c:/tools_embedded/3rdparty/gcc_13.2.1/bin/../lib/gcc/arm-none-eabi/13.2.1\libc.a(libc_a-fflush.o)
                              c:/tools_embedded/3rdparty/gcc_13.2.1/bin/../lib/gcc/arm-none-eabi/13.2.1\libc.a(libc_a-fclose.o) (__sflush_r)
c:/tools_embedded/3rdparty/gcc_13.2.1/bin/../lib/gcc/arm-none-eabi/13.2.1\libc.a(libc_a-sbrkr.o)
                              c:/tools_embedded/3rdparty/gcc_13.2.1/bin/../lib/gcc/arm-none-eabi/13.2.1\libc.a(libc_a-freer.o) (_sbrk_r)
c:/tools_embedded/3rdparty/gcc_13.2.1/bin/../lib/gcc/arm-none-eabi/13.2.1\libc.a(libc_a-sysconf.o)
                              c:/tools_embedded/3rdparty/gcc_13.2.1/bin/../lib/gcc/arm-none-eabi/13.2.1\libc.a(libc_a-freer.o) (sysconf)
c:/tools_embedded/3rdparty/gcc_13.2.1/bin/../lib/gcc/arm-none-eabi/13.2.1\libgcc.a(_udivsi3.o)
                              c:/tools_embedded/3rdparty/gcc_13.2.1/bin/../lib/gcc/arm-none-eabi/13.2.1\libc.a(libc_a-freer.o) (__aeabi_uidiv)
c:/tools_embedded/3rdparty/gcc_13.2.1/bin/../lib/gcc/arm-none-eabi/13.2.1\libgcc.a(_dvmd_tls.o)
                              c:/tools_embedded/3rdparty/gcc_13.2.1/bin/../lib/gcc/arm-none-eabi/13.2.1\libgcc.a(_udivsi3.o) (__aeabi_idiv0)

There are no discarded input sections

Memory Configuration

Name             Origin             Length             Attributes
FLASH            0x08000000         0x00020000         xr
SRAM             0x20000000         0x00005000         xrw
*default*        0x00000000         0xffffffff

Linker script and memory map

LOAD build/main.o
LOAD build/stm32f103_startup.o
LOAD build/USART.o
LOAD build/WDT.o
LOAD build/syscalls.o
START GROUP
LOAD c:/tools_embedded/3rdparty/gcc_13.2.1/bin/../lib/gcc/arm-none-eabi/13.2.1\libgcc.a
LOAD c:/tools_embedded/3rdparty/gcc_13.2.1/bin/../lib/gcc/arm-none-eabi/13.2.1\libc.a
END GROUP
                0x20005000                        _estack = (ORIGIN (SRAM) + LENGTH (SRAM))

.text           0x08000000      0x474
                0x08000000                        . = ALIGN (0x4)
 *(.isr_vector)
 .isr_vector    0x08000000       0x44 build/stm32f103_startup.o
                0x08000000                vector_tbl
 *(.text)
 .text          0x08000044       0xb0 build/main.o
                0x08000044                main
 .text          0x080000f4       0x68 build/stm32f103_startup.o
                0x080000f4                DebugMon_Handler
                0x080000f4                HardFault_Handler
                0x080000f4                SysTick_Handler
                0x080000f4                PendSV_Handler
                0x080000f4                NMI_Handler
                0x080000f4                UsageFault_Handler
                0x080000f4                SVC_Handler
                0x080000f4                Default_Handler
                0x080000f4                MemManage_Handler
                0x080000f4                BusFault_Handler
                0x080000fa                Reset_Handler
 .text          0x0800015c       0xa4 build/USART.o
                0x0800015c                USART1_Init
                0x080001d4                UART_write
 .text          0x08000200       0x64 build/WDT.o
                0x08000200                IWDG_init
                0x0800024c                IWDG_Refresh
 .text          0x08000264       0xf8 build/syscalls.o
                0x08000264                _sbrk
                0x080002b4                _write
                0x080002e4                _read
                0x080002fc                _close
                0x08000312                _fstat
                0x08000330                _lseek
                0x08000348                _isatty
 .text          0x0800035c        0x0 c:/tools_embedded/3rdparty/gcc_13.2.1/bin/../lib/gcc/arm-none-eabi/13.2.1\libc.a(libc_a-errno.o)
 .text          0x0800035c        0x0 c:/tools_embedded/3rdparty/gcc_13.2.1/bin/../lib/gcc/arm-none-eabi/13.2.1\libc.a(libc_a-impure.o)
 .text          0x0800035c        0x0 c:/tools_embedded/3rdparty/gcc_13.2.1/bin/../lib/gcc/arm-none-eabi/13.2.1\libc.a(libc_a-findfp.o)
 .text          0x0800035c        0x0 c:/tools_embedded/3rdparty/gcc_13.2.1/bin/../lib/gcc/arm-none-eabi/13.2.1\libc.a(libc_a-fwalk.o)
 .text          0x0800035c        0x0 c:/tools_embedded/3rdparty/gcc_13.2.1/bin/../lib/gcc/arm-none-eabi/13.2.1\libc.a(libc_a-stdio.o)
 .text          0x0800035c        0x0 c:/tools_embedded/3rdparty/gcc_13.2.1/bin/../lib/gcc/arm-none-eabi/13.2.1\libc.a(libc_a-memset.o)
 .text          0x0800035c        0x0 c:/tools_embedded/3rdparty/gcc_13.2.1/bin/../lib/gcc/arm-none-eabi/13.2.1\libc.a(libc_a-closer.o)
 .text          0x0800035c        0x0 c:/tools_embedded/3rdparty/gcc_13.2.1/bin/../lib/gcc/arm-none-eabi/13.2.1\libc.a(libc_a-reent.o)
 .text          0x0800035c        0x0 c:/tools_embedded/3rdparty/gcc_13.2.1/bin/../lib/gcc/arm-none-eabi/13.2.1\libc.a(libc_a-lseekr.o)
 .text          0x0800035c        0x0 c:/tools_embedded/3rdparty/gcc_13.2.1/bin/../lib/gcc/arm-none-eabi/13.2.1\libc.a(libc_a-readr.o)
 .text          0x0800035c        0x0 c:/tools_embedded/3rdparty/gcc_13.2.1/bin/../lib/gcc/arm-none-eabi/13.2.1\libc.a(libc_a-writer.o)
 .text          0x0800035c        0x0 c:/tools_embedded/3rdparty/gcc_13.2.1/bin/../lib/gcc/arm-none-eabi/13.2.1\libc.a(libc_a-lock.o)
 .text          0x0800035c        0x0 c:/tools_embedded/3rdparty/gcc_13.2.1/bin/../lib/gcc/arm-none-eabi/13.2.1\libc.a(libc_a-freer.o)
 .text          0x0800035c        0x0 c:/tools_embedded/3rdparty/gcc_13.2.1/bin/../lib/gcc/arm-none-eabi/13.2.1\libc.a(libc_a-mallocr.o)
 .text          0x0800035c        0x0 c:/tools_embedded/3rdparty/gcc_13.2.1/bin/../lib/gcc/arm-none-eabi/13.2.1\libc.a(libc_a-mlock.o)
 .text          0x0800035c        0x0 c:/tools_embedded/3rdparty/gcc_13.2.1/bin/../lib/gcc/arm-none-eabi/13.2.1\libc.a(libc_a-fclose.o)
 .text          0x0800035c        0x0 c:/tools_embedded/3rdparty/gcc_13.2.1/bin/../lib/gcc/arm-none-eabi/13.2.1\libc.a(libc_a-fflush.o)
 .text          0x0800035c        0x0 c:/tools_embedded/3rdparty/gcc_13.2.1/bin/../lib/gcc/arm-none-eabi/13.2.1\libc.a(libc_a-sbrkr.o)
 .text          0x0800035c        0x0 c:/tools_embedded/3rdparty/gcc_13.2.1/bin/../lib/gcc/arm-none-eabi/13.2.1\libc.a(libc_a-sysconf.o)
 .text          0x0800035c      0x114 c:/tools_embedded/3rdparty/gcc_13.2.1/bin/../lib/gcc/arm-none-eabi/13.2.1\libgcc.a(_udivsi3.o)
                0x0800035c                __aeabi_uidiv
                0x0800035c                __udivsi3
                0x08000450                __aeabi_uidivmod
 .text          0x08000470        0x4 c:/tools_embedded/3rdparty/gcc_13.2.1/bin/../lib/gcc/arm-none-eabi/13.2.1\libgcc.a(_dvmd_tls.o)
                0x08000470                __aeabi_idiv0
                0x08000470                __aeabi_ldiv0
 *(.rodata)
                0x08000474                        . = ALIGN (0x4)
                0x08000474                        _etext = .

.glue_7         0x08000474        0x0
 .glue_7        0x08000474        0x0 linker stubs

.glue_7t        0x08000474        0x0
 .glue_7t       0x08000474        0x0 linker stubs

.vfp11_veneer   0x08000474        0x0
 .vfp11_veneer  0x08000474        0x0 linker stubs

.v4_bx          0x08000474        0x0
 .v4_bx         0x08000474        0x0 linker stubs

.iplt           0x08000474        0x0
 .iplt          0x08000474        0x0 build/main.o

.text.__errno   0x08000474       0x10
 .text.__errno  0x08000474       0x10 c:/tools_embedded/3rdparty/gcc_13.2.1/bin/../lib/gcc/arm-none-eabi/13.2.1\libc.a(libc_a-errno.o)
                0x08000474                __errno

.text.stdio_exit_handler
                0x08000484       0x28
 .text.stdio_exit_handler
                0x08000484       0x28 c:/tools_embedded/3rdparty/gcc_13.2.1/bin/../lib/gcc/arm-none-eabi/13.2.1\libc.a(libc_a-findfp.o)

.text.cleanup_stdio
                0x080004ac       0x54
 .text.cleanup_stdio
                0x080004ac       0x54 c:/tools_embedded/3rdparty/gcc_13.2.1/bin/../lib/gcc/arm-none-eabi/13.2.1\libc.a(libc_a-findfp.o)

.text.__fp_lock
                0x08000500       0x38
 .text.__fp_lock
                0x08000500       0x38 c:/tools_embedded/3rdparty/gcc_13.2.1/bin/../lib/gcc/arm-none-eabi/13.2.1\libc.a(libc_a-findfp.o)

.text.__fp_unlock
                0x08000538       0x38
 .text.__fp_unlock
                0x08000538       0x38 c:/tools_embedded/3rdparty/gcc_13.2.1/bin/../lib/gcc/arm-none-eabi/13.2.1\libc.a(libc_a-findfp.o)

.text.global_stdio_init.part.0
                0x08000570      0x14c
 .text.global_stdio_init.part.0
                0x08000570      0x14c c:/tools_embedded/3rdparty/gcc_13.2.1/bin/../lib/gcc/arm-none-eabi/13.2.1\libc.a(libc_a-findfp.o)

.text.__sfp     0x080006bc      0x134
 .text.__sfp    0x080006bc      0x134 c:/tools_embedded/3rdparty/gcc_13.2.1/bin/../lib/gcc/arm-none-eabi/13.2.1\libc.a(libc_a-findfp.o)
                0x080006bc                __sfp

.text.__sinit   0x080007f0       0x64
 .text.__sinit  0x080007f0       0x64 c:/tools_embedded/3rdparty/gcc_13.2.1/bin/../lib/gcc/arm-none-eabi/13.2.1\libc.a(libc_a-findfp.o)
                0x080007f0                __sinit

.text.__sfp_lock_acquire
                0x08000854       0x18
 .text.__sfp_lock_acquire
                0x08000854       0x18 c:/tools_embedded/3rdparty/gcc_13.2.1/bin/../lib/gcc/arm-none-eabi/13.2.1\libc.a(libc_a-findfp.o)
                0x08000854                __sfp_lock_acquire

.text.__sfp_lock_release
                0x0800086c       0x18
 .text.__sfp_lock_release
                0x0800086c       0x18 c:/tools_embedded/3rdparty/gcc_13.2.1/bin/../lib/gcc/arm-none-eabi/13.2.1\libc.a(libc_a-findfp.o)
                0x0800086c                __sfp_lock_release

.text.__fp_lock_all
                0x08000884       0x30
 .text.__fp_lock_all
                0x08000884       0x30 c:/tools_embedded/3rdparty/gcc_13.2.1/bin/../lib/gcc/arm-none-eabi/13.2.1\libc.a(libc_a-findfp.o)
                0x08000884                __fp_lock_all

.text.__fp_unlock_all
                0x080008b4       0x30
 .text.__fp_unlock_all
                0x080008b4       0x30 c:/tools_embedded/3rdparty/gcc_13.2.1/bin/../lib/gcc/arm-none-eabi/13.2.1\libc.a(libc_a-findfp.o)
                0x080008b4                __fp_unlock_all

.text._fwalk_sglue
                0x080008e4       0x78
 .text._fwalk_sglue
                0x080008e4       0x78 c:/tools_embedded/3rdparty/gcc_13.2.1/bin/../lib/gcc/arm-none-eabi/13.2.1\libc.a(libc_a-fwalk.o)
                0x080008e4                _fwalk_sglue

.text.__sread   0x0800095c       0x34
 .text.__sread  0x0800095c       0x34 c:/tools_embedded/3rdparty/gcc_13.2.1/bin/../lib/gcc/arm-none-eabi/13.2.1\libc.a(libc_a-stdio.o)
                0x0800095c                __sread

.text.__seofread
                0x08000990        0x8
 .text.__seofread
                0x08000990        0x8 c:/tools_embedded/3rdparty/gcc_13.2.1/bin/../lib/gcc/arm-none-eabi/13.2.1\libc.a(libc_a-stdio.o)
                0x08000990                __seofread

.text.__swrite  0x08000998       0x5c
 .text.__swrite
                0x08000998       0x5c c:/tools_embedded/3rdparty/gcc_13.2.1/bin/../lib/gcc/arm-none-eabi/13.2.1\libc.a(libc_a-stdio.o)
                0x08000998                __swrite

.text.__sseek   0x080009f4       0x30
 .text.__sseek  0x080009f4       0x30 c:/tools_embedded/3rdparty/gcc_13.2.1/bin/../lib/gcc/arm-none-eabi/13.2.1\libc.a(libc_a-stdio.o)
                0x080009f4                __sseek

.text.__sclose  0x08000a24       0x14
 .text.__sclose
                0x08000a24       0x14 c:/tools_embedded/3rdparty/gcc_13.2.1/bin/../lib/gcc/arm-none-eabi/13.2.1\libc.a(libc_a-stdio.o)
                0x08000a24                __sclose

.text.memset    0x08000a38       0xfc
 .text.memset   0x08000a38       0xfc c:/tools_embedded/3rdparty/gcc_13.2.1/bin/../lib/gcc/arm-none-eabi/13.2.1\libc.a(libc_a-memset.o)
                0x08000a38                memset

.text._close_r  0x08000b34       0x3c
 .text._close_r
                0x08000b34       0x3c c:/tools_embedded/3rdparty/gcc_13.2.1/bin/../lib/gcc/arm-none-eabi/13.2.1\libc.a(libc_a-closer.o)
                0x08000b34                _close_r

.text._reclaim_reent
                0x08000b70       0xa4
 .text._reclaim_reent
                0x08000b70       0xa4 c:/tools_embedded/3rdparty/gcc_13.2.1/bin/../lib/gcc/arm-none-eabi/13.2.1\libc.a(libc_a-reent.o)
                0x08000b70                _reclaim_reent

.text._lseek_r  0x08000c14       0x48
 .text._lseek_r
                0x08000c14       0x48 c:/tools_embedded/3rdparty/gcc_13.2.1/bin/../lib/gcc/arm-none-eabi/13.2.1\libc.a(libc_a-lseekr.o)
                0x08000c14                _lseek_r

.text._read_r   0x08000c5c       0x48
 .text._read_r  0x08000c5c       0x48 c:/tools_embedded/3rdparty/gcc_13.2.1/bin/../lib/gcc/arm-none-eabi/13.2.1\libc.a(libc_a-readr.o)
                0x08000c5c                _read_r

.text._write_r  0x08000ca4       0x48
 .text._write_r
                0x08000ca4       0x48 c:/tools_embedded/3rdparty/gcc_13.2.1/bin/../lib/gcc/arm-none-eabi/13.2.1\libc.a(libc_a-writer.o)
                0x08000ca4                _write_r

.text.__retarget_lock_init
                0x08000cec        0x4
 .text.__retarget_lock_init
                0x08000cec        0x4 c:/tools_embedded/3rdparty/gcc_13.2.1/bin/../lib/gcc/arm-none-eabi/13.2.1\libc.a(libc_a-lock.o)
                0x08000cec                __retarget_lock_init

.text.__retarget_lock_init_recursive
                0x08000cf0        0x4
 .text.__retarget_lock_init_recursive
                0x08000cf0        0x4 c:/tools_embedded/3rdparty/gcc_13.2.1/bin/../lib/gcc/arm-none-eabi/13.2.1\libc.a(libc_a-lock.o)
                0x08000cf0                __retarget_lock_init_recursive

.text.__retarget_lock_close
                0x08000cf4        0x4
 .text.__retarget_lock_close
                0x08000cf4        0x4 c:/tools_embedded/3rdparty/gcc_13.2.1/bin/../lib/gcc/arm-none-eabi/13.2.1\libc.a(libc_a-lock.o)
                0x08000cf4                __retarget_lock_close

.text.__retarget_lock_close_recursive
                0x08000cf8        0x4
 .text.__retarget_lock_close_recursive
                0x08000cf8        0x4 c:/tools_embedded/3rdparty/gcc_13.2.1/bin/../lib/gcc/arm-none-eabi/13.2.1\libc.a(libc_a-lock.o)
                0x08000cf8                __retarget_lock_close_recursive

.text.__retarget_lock_acquire
                0x08000cfc        0x4
 .text.__retarget_lock_acquire
                0x08000cfc        0x4 c:/tools_embedded/3rdparty/gcc_13.2.1/bin/../lib/gcc/arm-none-eabi/13.2.1\libc.a(libc_a-lock.o)
                0x08000cfc                __retarget_lock_acquire

.text.__retarget_lock_acquire_recursive
                0x08000d00        0x4
 .text.__retarget_lock_acquire_recursive
                0x08000d00        0x4 c:/tools_embedded/3rdparty/gcc_13.2.1/bin/../lib/gcc/arm-none-eabi/13.2.1\libc.a(libc_a-lock.o)
                0x08000d00                __retarget_lock_acquire_recursive

.text.__retarget_lock_try_acquire
                0x08000d04        0x8
 .text.__retarget_lock_try_acquire
                0x08000d04        0x8 c:/tools_embedded/3rdparty/gcc_13.2.1/bin/../lib/gcc/arm-none-eabi/13.2.1\libc.a(libc_a-lock.o)
                0x08000d04                __retarget_lock_try_acquire

.text.__retarget_lock_try_acquire_recursive
                0x08000d0c        0x8
 .text.__retarget_lock_try_acquire_recursive
                0x08000d0c        0x8 c:/tools_embedded/3rdparty/gcc_13.2.1/bin/../lib/gcc/arm-none-eabi/13.2.1\libc.a(libc_a-lock.o)
                0x08000d0c                __retarget_lock_try_acquire_recursive

.text.__retarget_lock_release
                0x08000d14        0x4
 .text.__retarget_lock_release
                0x08000d14        0x4 c:/tools_embedded/3rdparty/gcc_13.2.1/bin/../lib/gcc/arm-none-eabi/13.2.1\libc.a(libc_a-lock.o)
                0x08000d14                __retarget_lock_release

.text.__retarget_lock_release_recursive
                0x08000d18        0x4
 .text.__retarget_lock_release_recursive
                0x08000d18        0x4 c:/tools_embedded/3rdparty/gcc_13.2.1/bin/../lib/gcc/arm-none-eabi/13.2.1\libc.a(libc_a-lock.o)
                0x08000d18                __retarget_lock_release_recursive

.text._malloc_trim_r
                0x08000d1c      0x114
 .text._malloc_trim_r
                0x08000d1c      0x114 c:/tools_embedded/3rdparty/gcc_13.2.1/bin/../lib/gcc/arm-none-eabi/13.2.1\libc.a(libc_a-freer.o)
                0x08000d1c                _malloc_trim_r

.text._free_r   0x08000e30      0x2e8
 .text._free_r  0x08000e30      0x2e8 c:/tools_embedded/3rdparty/gcc_13.2.1/bin/../lib/gcc/arm-none-eabi/13.2.1\libc.a(libc_a-freer.o)
                0x08000e30                _free_r

.text._malloc_r
                0x08001118      0x7b4
 .text._malloc_r
                0x08001118      0x7b4 c:/tools_embedded/3rdparty/gcc_13.2.1/bin/../lib/gcc/arm-none-eabi/13.2.1\libc.a(libc_a-mallocr.o)
                0x08001118                _malloc_r

.text.__malloc_lock
                0x080018cc       0x18
 .text.__malloc_lock
                0x080018cc       0x18 c:/tools_embedded/3rdparty/gcc_13.2.1/bin/../lib/gcc/arm-none-eabi/13.2.1\libc.a(libc_a-mlock.o)
                0x080018cc                __malloc_lock

.text.__malloc_unlock
                0x080018e4       0x18
 .text.__malloc_unlock
                0x080018e4       0x18 c:/tools_embedded/3rdparty/gcc_13.2.1/bin/../lib/gcc/arm-none-eabi/13.2.1\libc.a(libc_a-mlock.o)
                0x080018e4                __malloc_unlock

.text._fclose_r
                0x080018fc      0x154
 .text._fclose_r
                0x080018fc      0x154 c:/tools_embedded/3rdparty/gcc_13.2.1/bin/../lib/gcc/arm-none-eabi/13.2.1\libc.a(libc_a-fclose.o)
                0x080018fc                _fclose_r

.text.fclose    0x08001a50       0x14
 .text.fclose   0x08001a50       0x14 c:/tools_embedded/3rdparty/gcc_13.2.1/bin/../lib/gcc/arm-none-eabi/13.2.1\libc.a(libc_a-fclose.o)
                0x08001a50                fclose

.text.__sflush_r
                0x08001a64      0x210
 .text.__sflush_r
                0x08001a64      0x210 c:/tools_embedded/3rdparty/gcc_13.2.1/bin/../lib/gcc/arm-none-eabi/13.2.1\libc.a(libc_a-fflush.o)
                0x08001a64                __sflush_r

.text._fflush_r
                0x08001c74       0x9c
 .text._fflush_r
                0x08001c74       0x9c c:/tools_embedded/3rdparty/gcc_13.2.1/bin/../lib/gcc/arm-none-eabi/13.2.1\libc.a(libc_a-fflush.o)
                0x08001c74                _fflush_r

.text.fflush    0x08001d10       0xd4
 .text.fflush   0x08001d10       0xd4 c:/tools_embedded/3rdparty/gcc_13.2.1/bin/../lib/gcc/arm-none-eabi/13.2.1\libc.a(libc_a-fflush.o)
                0x08001d10                fflush

.text._sbrk_r   0x08001de4       0x44
 .text._sbrk_r  0x08001de4       0x44 c:/tools_embedded/3rdparty/gcc_13.2.1/bin/../lib/gcc/arm-none-eabi/13.2.1\libc.a(libc_a-sbrkr.o)
                0x08001de4                _sbrk_r

.text.sysconf   0x08001e28       0x30
 .text.sysconf  0x08001e28       0x30 c:/tools_embedded/3rdparty/gcc_13.2.1/bin/../lib/gcc/arm-none-eabi/13.2.1\libc.a(libc_a-sysconf.o)
                0x08001e28                sysconf

.rel.dyn        0x08001e58        0x0
 .rel.iplt      0x08001e58        0x0 build/main.o

.data           0x20000000        0x4 load address 0x08001e58
                0x20000000                        . = ALIGN (0x4)
                0x20000000                        __sdata = .
 *(.data)
 .data          0x20000000        0x0 build/main.o
 .data          0x20000000        0x0 build/stm32f103_startup.o
 .data          0x20000000        0x0 build/USART.o
 .data          0x20000000        0x0 build/WDT.o
 .data          0x20000000        0x4 build/syscalls.o
 .data          0x20000004        0x0 c:/tools_embedded/3rdparty/gcc_13.2.1/bin/../lib/gcc/arm-none-eabi/13.2.1\libc.a(libc_a-errno.o)
 .data          0x20000004        0x0 c:/tools_embedded/3rdparty/gcc_13.2.1/bin/../lib/gcc/arm-none-eabi/13.2.1\libc.a(libc_a-impure.o)
 .data          0x20000004        0x0 c:/tools_embedded/3rdparty/gcc_13.2.1/bin/../lib/gcc/arm-none-eabi/13.2.1\libc.a(libc_a-findfp.o)
 .data          0x20000004        0x0 c:/tools_embedded/3rdparty/gcc_13.2.1/bin/../lib/gcc/arm-none-eabi/13.2.1\libc.a(libc_a-fwalk.o)
 .data          0x20000004        0x0 c:/tools_embedded/3rdparty/gcc_13.2.1/bin/../lib/gcc/arm-none-eabi/13.2.1\libc.a(libc_a-stdio.o)
 .data          0x20000004        0x0 c:/tools_embedded/3rdparty/gcc_13.2.1/bin/../lib/gcc/arm-none-eabi/13.2.1\libc.a(libc_a-memset.o)
 .data          0x20000004        0x0 c:/tools_embedded/3rdparty/gcc_13.2.1/bin/../lib/gcc/arm-none-eabi/13.2.1\libc.a(libc_a-closer.o)
 .data          0x20000004        0x0 c:/tools_embedded/3rdparty/gcc_13.2.1/bin/../lib/gcc/arm-none-eabi/13.2.1\libc.a(libc_a-reent.o)
 .data          0x20000004        0x0 c:/tools_embedded/3rdparty/gcc_13.2.1/bin/../lib/gcc/arm-none-eabi/13.2.1\libc.a(libc_a-lseekr.o)
 .data          0x20000004        0x0 c:/tools_embedded/3rdparty/gcc_13.2.1/bin/../lib/gcc/arm-none-eabi/13.2.1\libc.a(libc_a-readr.o)
 .data          0x20000004        0x0 c:/tools_embedded/3rdparty/gcc_13.2.1/bin/../lib/gcc/arm-none-eabi/13.2.1\libc.a(libc_a-writer.o)
 .data          0x20000004        0x0 c:/tools_embedded/3rdparty/gcc_13.2.1/bin/../lib/gcc/arm-none-eabi/13.2.1\libc.a(libc_a-lock.o)
 .data          0x20000004        0x0 c:/tools_embedded/3rdparty/gcc_13.2.1/bin/../lib/gcc/arm-none-eabi/13.2.1\libc.a(libc_a-freer.o)
 .data          0x20000004        0x0 c:/tools_embedded/3rdparty/gcc_13.2.1/bin/../lib/gcc/arm-none-eabi/13.2.1\libc.a(libc_a-mallocr.o)
 .data          0x20000004        0x0 c:/tools_embedded/3rdparty/gcc_13.2.1/bin/../lib/gcc/arm-none-eabi/13.2.1\libc.a(libc_a-mlock.o)
 .data          0x20000004        0x0 c:/tools_embedded/3rdparty/gcc_13.2.1/bin/../lib/gcc/arm-none-eabi/13.2.1\libc.a(libc_a-fclose.o)
 .data          0x20000004        0x0 c:/tools_embedded/3rdparty/gcc_13.2.1/bin/../lib/gcc/arm-none-eabi/13.2.1\libc.a(libc_a-fflush.o)
 .data          0x20000004        0x0 c:/tools_embedded/3rdparty/gcc_13.2.1/bin/../lib/gcc/arm-none-eabi/13.2.1\libc.a(libc_a-sbrkr.o)
 .data          0x20000004        0x0 c:/tools_embedded/3rdparty/gcc_13.2.1/bin/../lib/gcc/arm-none-eabi/13.2.1\libc.a(libc_a-sysconf.o)
 .data          0x20000004        0x0 c:/tools_embedded/3rdparty/gcc_13.2.1/bin/../lib/gcc/arm-none-eabi/13.2.1\libgcc.a(_udivsi3.o)
 .data          0x20000004        0x0 c:/tools_embedded/3rdparty/gcc_13.2.1/bin/../lib/gcc/arm-none-eabi/13.2.1\libgcc.a(_dvmd_tls.o)
                0x20000004                        . = ALIGN (0x4)
                0x20000004                        __edata = .

.igot.plt       0x20000004        0x0 load address 0x08001e5c
 .igot.plt      0x20000004        0x0 build/main.o

.data._impure_ptr
                0x20000004        0x4 load address 0x08001e5c
 .data._impure_ptr
                0x20000004        0x4 c:/tools_embedded/3rdparty/gcc_13.2.1/bin/../lib/gcc/arm-none-eabi/13.2.1\libc.a(libc_a-impure.o)
                0x20000004                _impure_ptr

.data._impure_data
                0x20000008      0x120 load address 0x08001e60
 .data._impure_data
                0x20000008      0x120 c:/tools_embedded/3rdparty/gcc_13.2.1/bin/../lib/gcc/arm-none-eabi/13.2.1\libc.a(libc_a-impure.o)
                0x20000008                _impure_data

.data.__sglue   0x20000128        0xc load address 0x08001f80
 .data.__sglue  0x20000128        0xc c:/tools_embedded/3rdparty/gcc_13.2.1/bin/../lib/gcc/arm-none-eabi/13.2.1\libc.a(libc_a-findfp.o)
                0x20000128                __sglue

.data.__malloc_sbrk_base
                0x20000134        0x4 load address 0x08001f8c
 .data.__malloc_sbrk_base
                0x20000134        0x4 c:/tools_embedded/3rdparty/gcc_13.2.1/bin/../lib/gcc/arm-none-eabi/13.2.1\libc.a(libc_a-mallocr.o)
                0x20000134                __malloc_sbrk_base

.data.__malloc_trim_threshold
                0x20000138        0x4 load address 0x08001f90
 .data.__malloc_trim_threshold
                0x20000138        0x4 c:/tools_embedded/3rdparty/gcc_13.2.1/bin/../lib/gcc/arm-none-eabi/13.2.1\libc.a(libc_a-mallocr.o)
                0x20000138                __malloc_trim_threshold

.data.__malloc_av_
                0x20000140      0x408 load address 0x08001f94
 .data.__malloc_av_
                0x20000140      0x408 c:/tools_embedded/3rdparty/gcc_13.2.1/bin/../lib/gcc/arm-none-eabi/13.2.1\libc.a(libc_a-mallocr.o)
                0x20000140                __malloc_av_

.bss            0x20000548        0x0 load address 0x0800239c
                0x20000548                        . = ALIGN (0x4)
                0x20000548                        __bss_start__ = .
 *(.bss)
 .bss           0x20000548        0x0 build/main.o
 .bss           0x20000548        0x0 build/stm32f103_startup.o
 .bss           0x20000548        0x0 build/USART.o
 .bss           0x20000548        0x0 build/WDT.o
 .bss           0x20000548        0x0 build/syscalls.o
 .bss           0x20000548        0x0 c:/tools_embedded/3rdparty/gcc_13.2.1/bin/../lib/gcc/arm-none-eabi/13.2.1\libc.a(libc_a-errno.o)
 .bss           0x20000548        0x0 c:/tools_embedded/3rdparty/gcc_13.2.1/bin/../lib/gcc/arm-none-eabi/13.2.1\libc.a(libc_a-impure.o)
 .bss           0x20000548        0x0 c:/tools_embedded/3rdparty/gcc_13.2.1/bin/../lib/gcc/arm-none-eabi/13.2.1\libc.a(libc_a-findfp.o)
 .bss           0x20000548        0x0 c:/tools_embedded/3rdparty/gcc_13.2.1/bin/../lib/gcc/arm-none-eabi/13.2.1\libc.a(libc_a-fwalk.o)
 .bss           0x20000548        0x0 c:/tools_embedded/3rdparty/gcc_13.2.1/bin/../lib/gcc/arm-none-eabi/13.2.1\libc.a(libc_a-stdio.o)
 .bss           0x20000548        0x0 c:/tools_embedded/3rdparty/gcc_13.2.1/bin/../lib/gcc/arm-none-eabi/13.2.1\libc.a(libc_a-memset.o)
 .bss           0x20000548        0x0 c:/tools_embedded/3rdparty/gcc_13.2.1/bin/../lib/gcc/arm-none-eabi/13.2.1\libc.a(libc_a-closer.o)
 .bss           0x20000548        0x0 c:/tools_embedded/3rdparty/gcc_13.2.1/bin/../lib/gcc/arm-none-eabi/13.2.1\libc.a(libc_a-reent.o)
 .bss           0x20000548        0x0 c:/tools_embedded/3rdparty/gcc_13.2.1/bin/../lib/gcc/arm-none-eabi/13.2.1\libc.a(libc_a-lseekr.o)
 .bss           0x20000548        0x0 c:/tools_embedded/3rdparty/gcc_13.2.1/bin/../lib/gcc/arm-none-eabi/13.2.1\libc.a(libc_a-readr.o)
 .bss           0x20000548        0x0 c:/tools_embedded/3rdparty/gcc_13.2.1/bin/../lib/gcc/arm-none-eabi/13.2.1\libc.a(libc_a-writer.o)
 .bss           0x20000548        0x0 c:/tools_embedded/3rdparty/gcc_13.2.1/bin/../lib/gcc/arm-none-eabi/13.2.1\libc.a(libc_a-lock.o)
 .bss           0x20000548        0x0 c:/tools_embedded/3rdparty/gcc_13.2.1/bin/../lib/gcc/arm-none-eabi/13.2.1\libc.a(libc_a-freer.o)
 .bss           0x20000548        0x0 c:/tools_embedded/3rdparty/gcc_13.2.1/bin/../lib/gcc/arm-none-eabi/13.2.1\libc.a(libc_a-mallocr.o)
 .bss           0x20000548        0x0 c:/tools_embedded/3rdparty/gcc_13.2.1/bin/../lib/gcc/arm-none-eabi/13.2.1\libc.a(libc_a-mlock.o)
 .bss           0x20000548        0x0 c:/tools_embedded/3rdparty/gcc_13.2.1/bin/../lib/gcc/arm-none-eabi/13.2.1\libc.a(libc_a-fclose.o)
 .bss           0x20000548        0x0 c:/tools_embedded/3rdparty/gcc_13.2.1/bin/../lib/gcc/arm-none-eabi/13.2.1\libc.a(libc_a-fflush.o)
 .bss           0x20000548        0x0 c:/tools_embedded/3rdparty/gcc_13.2.1/bin/../lib/gcc/arm-none-eabi/13.2.1\libc.a(libc_a-sbrkr.o)
 .bss           0x20000548        0x0 c:/tools_embedded/3rdparty/gcc_13.2.1/bin/../lib/gcc/arm-none-eabi/13.2.1\libc.a(libc_a-sysconf.o)
 .bss           0x20000548        0x0 c:/tools_embedded/3rdparty/gcc_13.2.1/bin/../lib/gcc/arm-none-eabi/13.2.1\libgcc.a(_udivsi3.o)
 .bss           0x20000548        0x0 c:/tools_embedded/3rdparty/gcc_13.2.1/bin/../lib/gcc/arm-none-eabi/13.2.1\libgcc.a(_dvmd_tls.o)
                0x20000548                        . = ALIGN (0x4)
                0x20000548                        __bss_end__ = .
                0x20000548                        _end = .
OUTPUT(bin/WDT_1sec.elf elf32-littlearm)
LOAD linker stubs

.bss.__sf       0x20000548      0x138 load address 0x0800239c
 .bss.__sf      0x20000548      0x138 c:/tools_embedded/3rdparty/gcc_13.2.1/bin/../lib/gcc/arm-none-eabi/13.2.1\libc.a(libc_a-findfp.o)
                0x20000548                __sf

.bss.__stdio_exit_handler
                0x20000680        0x4 load address 0x0800239c
 .bss.__stdio_exit_handler
                0x20000680        0x4 c:/tools_embedded/3rdparty/gcc_13.2.1/bin/../lib/gcc/arm-none-eabi/13.2.1\libc.a(libc_a-findfp.o)
                0x20000680                __stdio_exit_handler

.bss.errno      0x20000684        0x4 load address 0x0800239c
 .bss.errno     0x20000684        0x4 c:/tools_embedded/3rdparty/gcc_13.2.1/bin/../lib/gcc/arm-none-eabi/13.2.1\libc.a(libc_a-reent.o)
                0x20000684                errno

.bss.__lock___arc4random_mutex
                0x20000688        0x1 load address 0x0800239c
 .bss.__lock___arc4random_mutex
                0x20000688        0x1 c:/tools_embedded/3rdparty/gcc_13.2.1/bin/../lib/gcc/arm-none-eabi/13.2.1\libc.a(libc_a-lock.o)
                0x20000688                __lock___arc4random_mutex

.bss.__lock___dd_hash_mutex
                0x2000068c        0x1 load address 0x0800239c
 .bss.__lock___dd_hash_mutex
                0x2000068c        0x1 c:/tools_embedded/3rdparty/gcc_13.2.1/bin/../lib/gcc/arm-none-eabi/13.2.1\libc.a(libc_a-lock.o)
                0x2000068c                __lock___dd_hash_mutex

.bss.__lock___tz_mutex
                0x20000690        0x1 load address 0x0800239c
 .bss.__lock___tz_mutex
                0x20000690        0x1 c:/tools_embedded/3rdparty/gcc_13.2.1/bin/../lib/gcc/arm-none-eabi/13.2.1\libc.a(libc_a-lock.o)
                0x20000690                __lock___tz_mutex

.bss.__lock___env_recursive_mutex
                0x20000694        0x1 load address 0x0800239c
 .bss.__lock___env_recursive_mutex
                0x20000694        0x1 c:/tools_embedded/3rdparty/gcc_13.2.1/bin/../lib/gcc/arm-none-eabi/13.2.1\libc.a(libc_a-lock.o)
                0x20000694                __lock___env_recursive_mutex

.bss.__lock___malloc_recursive_mutex
                0x20000698        0x1 load address 0x0800239c
 .bss.__lock___malloc_recursive_mutex
                0x20000698        0x1 c:/tools_embedded/3rdparty/gcc_13.2.1/bin/../lib/gcc/arm-none-eabi/13.2.1\libc.a(libc_a-lock.o)
                0x20000698                __lock___malloc_recursive_mutex

.bss.__lock___at_quick_exit_mutex
                0x2000069c        0x1 load address 0x0800239c
 .bss.__lock___at_quick_exit_mutex
                0x2000069c        0x1 c:/tools_embedded/3rdparty/gcc_13.2.1/bin/../lib/gcc/arm-none-eabi/13.2.1\libc.a(libc_a-lock.o)
                0x2000069c                __lock___at_quick_exit_mutex

.bss.__lock___atexit_recursive_mutex
                0x200006a0        0x1 load address 0x0800239c
 .bss.__lock___atexit_recursive_mutex
                0x200006a0        0x1 c:/tools_embedded/3rdparty/gcc_13.2.1/bin/../lib/gcc/arm-none-eabi/13.2.1\libc.a(libc_a-lock.o)
                0x200006a0                __lock___atexit_recursive_mutex

.bss.__lock___sfp_recursive_mutex
                0x200006a4        0x1 load address 0x0800239c
 .bss.__lock___sfp_recursive_mutex
                0x200006a4        0x1 c:/tools_embedded/3rdparty/gcc_13.2.1/bin/../lib/gcc/arm-none-eabi/13.2.1\libc.a(libc_a-lock.o)
                0x200006a4                __lock___sfp_recursive_mutex

.bss.__malloc_current_mallinfo
                0x200006a8       0x28 load address 0x0800239c
 .bss.__malloc_current_mallinfo
                0x200006a8       0x28 c:/tools_embedded/3rdparty/gcc_13.2.1/bin/../lib/gcc/arm-none-eabi/13.2.1\libc.a(libc_a-mallocr.o)
                0x200006a8                __malloc_current_mallinfo

.bss.__malloc_max_total_mem
                0x200006d0        0x4 load address 0x0800239c
 .bss.__malloc_max_total_mem
                0x200006d0        0x4 c:/tools_embedded/3rdparty/gcc_13.2.1/bin/../lib/gcc/arm-none-eabi/13.2.1\libc.a(libc_a-mallocr.o)
                0x200006d0                __malloc_max_total_mem

.bss.__malloc_max_sbrked_mem
                0x200006d4        0x4 load address 0x0800239c
 .bss.__malloc_max_sbrked_mem
                0x200006d4        0x4 c:/tools_embedded/3rdparty/gcc_13.2.1/bin/../lib/gcc/arm-none-eabi/13.2.1\libc.a(libc_a-mallocr.o)
                0x200006d4                __malloc_max_sbrked_mem

.bss.__malloc_top_pad
                0x200006d8        0x4 load address 0x0800239c
 .bss.__malloc_top_pad
                0x200006d8        0x4 c:/tools_embedded/3rdparty/gcc_13.2.1/bin/../lib/gcc/arm-none-eabi/13.2.1\libc.a(libc_a-mallocr.o)
                0x200006d8                __malloc_top_pad

.comment        0x00000000       0x44
 .comment       0x00000000       0x44 build/main.o
                                 0x45 (size before relaxing)
 .comment       0x00000044       0x45 build/stm32f103_startup.o
 .comment       0x00000044       0x45 build/USART.o
 .comment       0x00000044       0x45 build/WDT.o
 .comment       0x00000044       0x45 build/syscalls.o

.ARM.attributes
                0x00000000       0x2f
 .ARM.attributes
                0x00000000       0x2d build/main.o
 .ARM.attributes
                0x0000002d       0x2d build/stm32f103_startup.o
 .ARM.attributes
                0x0000005a       0x2d build/USART.o
 .ARM.attributes
                0x00000087       0x2d build/WDT.o
 .ARM.attributes
                0x000000b4       0x2d build/syscalls.o
 .ARM.attributes
                0x000000e1       0x2a c:/tools_embedded/3rdparty/gcc_13.2.1/bin/../lib/gcc/arm-none-eabi/13.2.1\libc.a(libc_a-errno.o)
 .ARM.attributes
                0x0000010b       0x2a c:/tools_embedded/3rdparty/gcc_13.2.1/bin/../lib/gcc/arm-none-eabi/13.2.1\libc.a(libc_a-impure.o)
 .ARM.attributes
                0x00000135       0x2a c:/tools_embedded/3rdparty/gcc_13.2.1/bin/../lib/gcc/arm-none-eabi/13.2.1\libc.a(libc_a-findfp.o)
 .ARM.attributes
                0x0000015f       0x2a c:/tools_embedded/3rdparty/gcc_13.2.1/bin/../lib/gcc/arm-none-eabi/13.2.1\libc.a(libc_a-fwalk.o)
 .ARM.attributes
                0x00000189       0x2a c:/tools_embedded/3rdparty/gcc_13.2.1/bin/../lib/gcc/arm-none-eabi/13.2.1\libc.a(libc_a-stdio.o)
 .ARM.attributes
                0x000001b3       0x2a c:/tools_embedded/3rdparty/gcc_13.2.1/bin/../lib/gcc/arm-none-eabi/13.2.1\libc.a(libc_a-memset.o)
 .ARM.attributes
                0x000001dd       0x2a c:/tools_embedded/3rdparty/gcc_13.2.1/bin/../lib/gcc/arm-none-eabi/13.2.1\libc.a(libc_a-closer.o)
 .ARM.attributes
                0x00000207       0x2a c:/tools_embedded/3rdparty/gcc_13.2.1/bin/../lib/gcc/arm-none-eabi/13.2.1\libc.a(libc_a-reent.o)
 .ARM.attributes
                0x00000231       0x2a c:/tools_embedded/3rdparty/gcc_13.2.1/bin/../lib/gcc/arm-none-eabi/13.2.1\libc.a(libc_a-lseekr.o)
 .ARM.attributes
                0x0000025b       0x2a c:/tools_embedded/3rdparty/gcc_13.2.1/bin/../lib/gcc/arm-none-eabi/13.2.1\libc.a(libc_a-readr.o)
 .ARM.attributes
                0x00000285       0x2a c:/tools_embedded/3rdparty/gcc_13.2.1/bin/../lib/gcc/arm-none-eabi/13.2.1\libc.a(libc_a-writer.o)
 .ARM.attributes
                0x000002af       0x2a c:/tools_embedded/3rdparty/gcc_13.2.1/bin/../lib/gcc/arm-none-eabi/13.2.1\libc.a(libc_a-lock.o)
 .ARM.attributes
                0x000002d9       0x2a c:/tools_embedded/3rdparty/gcc_13.2.1/bin/../lib/gcc/arm-none-eabi/13.2.1\libc.a(libc_a-freer.o)
 .ARM.attributes
                0x00000303       0x2a c:/tools_embedded/3rdparty/gcc_13.2.1/bin/../lib/gcc/arm-none-eabi/13.2.1\libc.a(libc_a-mallocr.o)
 .ARM.attributes
                0x0000032d       0x2a c:/tools_embedded/3rdparty/gcc_13.2.1/bin/../lib/gcc/arm-none-eabi/13.2.1\libc.a(libc_a-mlock.o)
 .ARM.attributes
                0x00000357       0x2a c:/tools_embedded/3rdparty/gcc_13.2.1/bin/../lib/gcc/arm-none-eabi/13.2.1\libc.a(libc_a-fclose.o)
 .ARM.attributes
                0x00000381       0x2a c:/tools_embedded/3rdparty/gcc_13.2.1/bin/../lib/gcc/arm-none-eabi/13.2.1\libc.a(libc_a-fflush.o)
 .ARM.attributes
                0x000003ab       0x2a c:/tools_embedded/3rdparty/gcc_13.2.1/bin/../lib/gcc/arm-none-eabi/13.2.1\libc.a(libc_a-sbrkr.o)
 .ARM.attributes
                0x000003d5       0x2a c:/tools_embedded/3rdparty/gcc_13.2.1/bin/../lib/gcc/arm-none-eabi/13.2.1\libc.a(libc_a-sysconf.o)
 .ARM.attributes
                0x000003ff       0x1c c:/tools_embedded/3rdparty/gcc_13.2.1/bin/../lib/gcc/arm-none-eabi/13.2.1\libgcc.a(_udivsi3.o)
 .ARM.attributes
                0x0000041b       0x1c c:/tools_embedded/3rdparty/gcc_13.2.1/bin/../lib/gcc/arm-none-eabi/13.2.1\libgcc.a(_dvmd_tls.o)

.debug_frame    0x00000000      0x6f4
 .debug_frame   0x00000000       0x20 c:/tools_embedded/3rdparty/gcc_13.2.1/bin/../lib/gcc/arm-none-eabi/13.2.1\libc.a(libc_a-errno.o)
 .debug_frame   0x00000020      0x170 c:/tools_embedded/3rdparty/gcc_13.2.1/bin/../lib/gcc/arm-none-eabi/13.2.1\libc.a(libc_a-findfp.o)
 .debug_frame   0x00000190       0x40 c:/tools_embedded/3rdparty/gcc_13.2.1/bin/../lib/gcc/arm-none-eabi/13.2.1\libc.a(libc_a-fwalk.o)
 .debug_frame   0x000001d0       0xa0 c:/tools_embedded/3rdparty/gcc_13.2.1/bin/../lib/gcc/arm-none-eabi/13.2.1\libc.a(libc_a-stdio.o)
 .debug_frame   0x00000270       0x34 c:/tools_embedded/3rdparty/gcc_13.2.1/bin/../lib/gcc/arm-none-eabi/13.2.1\libc.a(libc_a-memset.o)
 .debug_frame   0x000002a4       0x34 c:/tools_embedded/3rdparty/gcc_13.2.1/bin/../lib/gcc/arm-none-eabi/13.2.1\libc.a(libc_a-closer.o)
 .debug_frame   0x000002d8       0x3c c:/tools_embedded/3rdparty/gcc_13.2.1/bin/../lib/gcc/arm-none-eabi/13.2.1\libc.a(libc_a-reent.o)
 .debug_frame   0x00000314       0x34 c:/tools_embedded/3rdparty/gcc_13.2.1/bin/../lib/gcc/arm-none-eabi/13.2.1\libc.a(libc_a-lseekr.o)
 .debug_frame   0x00000348       0x34 c:/tools_embedded/3rdparty/gcc_13.2.1/bin/../lib/gcc/arm-none-eabi/13.2.1\libc.a(libc_a-readr.o)
 .debug_frame   0x0000037c       0x34 c:/tools_embedded/3rdparty/gcc_13.2.1/bin/../lib/gcc/arm-none-eabi/13.2.1\libc.a(libc_a-writer.o)
 .debug_frame   0x000003b0       0xb0 c:/tools_embedded/3rdparty/gcc_13.2.1/bin/../lib/gcc/arm-none-eabi/13.2.1\libc.a(libc_a-lock.o)
 .debug_frame   0x00000460       0x70 c:/tools_embedded/3rdparty/gcc_13.2.1/bin/../lib/gcc/arm-none-eabi/13.2.1\libc.a(libc_a-freer.o)
 .debug_frame   0x000004d0       0x60 c:/tools_embedded/3rdparty/gcc_13.2.1/bin/../lib/gcc/arm-none-eabi/13.2.1\libc.a(libc_a-mallocr.o)
 .debug_frame   0x00000530       0x48 c:/tools_embedded/3rdparty/gcc_13.2.1/bin/../lib/gcc/arm-none-eabi/13.2.1\libc.a(libc_a-mlock.o)
 .debug_frame   0x00000578       0x50 c:/tools_embedded/3rdparty/gcc_13.2.1/bin/../lib/gcc/arm-none-eabi/13.2.1\libc.a(libc_a-fclose.o)
 .debug_frame   0x000005c8       0xa4 c:/tools_embedded/3rdparty/gcc_13.2.1/bin/../lib/gcc/arm-none-eabi/13.2.1\libc.a(libc_a-fflush.o)
 .debug_frame   0x0000066c       0x3c c:/tools_embedded/3rdparty/gcc_13.2.1/bin/../lib/gcc/arm-none-eabi/13.2.1\libc.a(libc_a-sbrkr.o)
 .debug_frame   0x000006a8       0x2c c:/tools_embedded/3rdparty/gcc_13.2.1/bin/../lib/gcc/arm-none-eabi/13.2.1\libc.a(libc_a-sysconf.o)
 .debug_frame   0x000006d4       0x20 c:/tools_embedded/3rdparty/gcc_13.2.1/bin/../lib/gcc/arm-none-eabi/13.2.1\libgcc.a(_udivsi3.o)

.debug_line_str
                0x00000000       0xb9
 .debug_line_str
                0x00000000       0xb9 c:/tools_embedded/3rdparty/gcc_13.2.1/bin/../lib/gcc/arm-none-eabi/13.2.1\libgcc.a(_udivsi3.o)
 .debug_line_str
                0x000000b9       0xb9 c:/tools_embedded/3rdparty/gcc_13.2.1/bin/../lib/gcc/arm-none-eabi/13.2.1\libgcc.a(_dvmd_tls.o)
